; Function Attrs: mustprogress nofree norecurse nosync nounwind willreturn memory(readwrite, inaccessiblemem: none) uwtable
define dso_local void @_ZN3ozz3log14FloatPrecisionC2ERKNS0_6LoggerEi(ptr noundef nonnull writeonly align 8 captures(none) dereferenceable(24) initializes((0, 12), (16, 24)) %0, ptr noundef nonnull readonly align 8 captures(none) dereferenceable(9) %1, i32 noundef %2) unnamed_addr #9 align 2 {
  %4 = load ptr, ptr %1, align 8, !tbaa !18
  %5 = load ptr, ptr %4, align 8, !tbaa !8
  %6 = getelementptr i8, ptr %5, i64 -24
  %7 = load i64, ptr %6, align 8
  %8 = getelementptr inbounds i8, ptr %4, i64 %7
  %9 = sext i32 %2 to i64
  %10 = getelementptr inbounds nuw i8, ptr %8, i64 8
  %11 = load i64, ptr %10, align 8, !tbaa !19
  store i64 %9, ptr %10, align 8, !tbaa !19
  store i64 %11, ptr %0, align 8, !tbaa !30
  %12 = getelementptr inbounds nuw i8, ptr %0, i64 8
  %13 = load i64, ptr %6, align 8
  %14 = getelementptr inbounds i8, ptr %4, i64 %13
  %15 = getelementptr inbounds nuw i8, ptr %14, i64 24
  %16 = load i32, ptr %15, align 8, !tbaa !32
  %17 = and i32 %16, -261
  %18 = or disjoint i32 %17, 4
  store i32 %18, ptr %15, align 4, !tbaa !33
  store i32 %16, ptr %12, align 8, !tbaa !34
  %19 = getelementptr inbounds nuw i8, ptr %0, i64 16
  store ptr %4, ptr %19, align 8, !tbaa !10
  ret void
}